target datalayout = "e-m:e-p270:32:32-p271:32:32-p272:64:64-i64:64-i128:128-f80:128-n8:16:32:64-S128"
target triple = "x86_64-pc-linux-gnu"

%"struct.dmlc::parameter::ParamManagerSingleton" = type { %"class.dmlc::parameter::ParamManager" }
%"class.dmlc::parameter::ParamManager" = type { %"class.std::__cxx11::basic_string", %"class.std::vector", %"class.std::map" }
%"class.std::__cxx11::basic_string" = type { %"struct.std::__cxx11::basic_string<char>::_Alloc_hider", i64, %union.anon }
%"struct.std::__cxx11::basic_string<char>::_Alloc_hider" = type { ptr }
%union.anon = type { i64, [8 x i8] }
%"class.std::vector" = type { %"struct.std::_Vector_base" }
%"struct.std::_Vector_base" = type { %"struct.std::_Vector_base<dmlc::parameter::FieldAccessEntry *, std::allocator<dmlc::parameter::FieldAccessEntry *>>::_Vector_impl" }
%"struct.std::_Vector_base<dmlc::parameter::FieldAccessEntry *, std::allocator<dmlc::parameter::FieldAccessEntry *>>::_Vector_impl" = type { %"struct.std::_Vector_base<dmlc::parameter::FieldAccessEntry *, std::allocator<dmlc::parameter::FieldAccessEntry *>>::_Vector_impl_data" }
%"struct.std::_Vector_base<dmlc::parameter::FieldAccessEntry *, std::allocator<dmlc::parameter::FieldAccessEntry *>>::_Vector_impl_data" = type { ptr, ptr, ptr }
%"class.std::map" = type { %"class.std::_Rb_tree" }
%"class.std::_Rb_tree" = type { %"struct.std::_Rb_tree<std::__cxx11::basic_string<char>, std::pair<const std::__cxx11::basic_string<char>, dmlc::parameter::FieldAccessEntry *>, std::_Select1st<std::pair<const std::__cxx11::basic_string<char>, dmlc::parameter::FieldAccessEntry *>>, std::less<std::__cxx11::basic_string<char>>>::_Rb_tree_impl" }
%"struct.std::_Rb_tree<std::__cxx11::basic_string<char>, std::pair<const std::__cxx11::basic_string<char>, dmlc::parameter::FieldAccessEntry *>, std::_Select1st<std::pair<const std::__cxx11::basic_string<char>, dmlc::parameter::FieldAccessEntry *>>, std::less<std::__cxx11::basic_string<char>>>::_Rb_tree_impl" = type { %"struct.std::_Rb_tree_key_compare", %"struct.std::_Rb_tree_header" }
%"struct.std::_Rb_tree_key_compare" = type { %"struct.std::less" }
%"struct.std::less" = type { i8 }
%"struct.std::_Rb_tree_header" = type { %"struct.std::_Rb_tree_node_base", i64 }
%"struct.std::_Rb_tree_node_base" = type { i32, ptr, ptr, ptr }
%"class.std::allocator" = type { i8 }

@__dso_handle = external hidden global i8
@_ZZN7xgboost3obj12RegLossParam11__MANAGER__EvE4inst = internal global %"struct.dmlc::parameter::ParamManagerSingleton" zeroinitializer, align 8
@_ZGVZN7xgboost3obj12RegLossParam11__MANAGER__EvE4inst = internal global i64 0, align 8
@.str = private unnamed_addr constant [13 x i8] c"RegLossParam\00", align 1

; Function Attrs: mustprogress uwtable
define noundef ptr @_ZN7xgboost3obj12RegLossParam11__MANAGER__Ev() #5 align 2 personality ptr @__gxx_personality_v0 {
  %1 = alloca %"class.std::__cxx11::basic_string", align 8
  %2 = alloca %"class.std::allocator", align 1
  %3 = alloca ptr, align 8
  %4 = alloca i32, align 4
  %5 = load atomic i8, ptr @_ZGVZN7xgboost3obj12RegLossParam11__MANAGER__EvE4inst acquire, align 8
  %6 = icmp eq i8 %5, 0
  br i1 %6, label %7, label %14, !prof !4

7:                                                ; preds = %0
  %8 = call i32 @__cxa_guard_acquire(ptr @_ZGVZN7xgboost3obj12RegLossParam11__MANAGER__EvE4inst) #3
  %9 = icmp ne i32 %8, 0
  br i1 %9, label %10, label %14

10:                                               ; preds = %7
  call void @_ZNSaIcEC1Ev(ptr noundef nonnull align 1 dereferenceable(1) %2) #3
  invoke void @_ZNSt7__cxx1112basic_stringIcSt11char_traitsIcESaIcEEC2IS3_EEPKcRKS3_(ptr noundef nonnull align 8 dereferenceable(32) %1, ptr noundef @.str, ptr noundef nonnull align 1 dereferenceable(1) %2)
          to label %11 unwind label %15

11:                                               ; preds = %10
  invoke void @_ZN4dmlc9parameter21ParamManagerSingletonIN7xgboost3obj12RegLossParamEEC2ERKNSt7__cxx1112basic_stringIcSt11char_traitsIcESaIcEEE(ptr noundef nonnull align 8 dereferenceable(104) @_ZZN7xgboost3obj12RegLossParam11__MANAGER__EvE4inst, ptr noundef nonnull align 8 dereferenceable(32) %1)
          to label %12 unwind label %19

12:                                               ; preds = %11
  call void @_ZNSt7__cxx1112basic_stringIcSt11char_traitsIcESaIcEED1Ev(ptr noundef nonnull align 8 dereferenceable(32) %1) #3
  call void @_ZNSaIcED1Ev(ptr noundef nonnull align 1 dereferenceable(1) %2) #3
  %13 = call i32 @__cxa_atexit(ptr @_ZN4dmlc9parameter21ParamManagerSingletonIN7xgboost3obj12RegLossParamEED2Ev, ptr @_ZZN7xgboost3obj12RegLossParam11__MANAGER__EvE4inst, ptr @__dso_handle) #3
  call void @__cxa_guard_release(ptr @_ZGVZN7xgboost3obj12RegLossParam11__MANAGER__EvE4inst) #3
  br label %14

14:                                               ; preds = %12, %7, %0
  ret ptr @_ZZN7xgboost3obj12RegLossParam11__MANAGER__EvE4inst

15:                                               ; preds = %10
  %16 = landingpad { ptr, i32 }
          cleanup
  %17 = extractvalue { ptr, i32 } %16, 0
  store ptr %17, ptr %3, align 8
  %18 = extractvalue { ptr, i32 } %16, 1
  store i32 %18, ptr %4, align 4
  br label %23

19:                                               ; preds = %11
  %20 = landingpad { ptr, i32 }
          cleanup
  %21 = extractvalue { ptr, i32 } %20, 0
  store ptr %21, ptr %3, align 8
  %22 = extractvalue { ptr, i32 } %20, 1
  store i32 %22, ptr %4, align 4
  call void @_ZNSt7__cxx1112basic_stringIcSt11char_traitsIcESaIcEED1Ev(ptr noundef nonnull align 8 dereferenceable(32) %1) #3
  br label %23

23:                                               ; preds = %19, %15
  call void @_ZNSaIcED1Ev(ptr noundef nonnull align 1 dereferenceable(1) %2) #3
  call void @__cxa_guard_abort(ptr @_ZGVZN7xgboost3obj12RegLossParam11__MANAGER__EvE4inst) #3
  br label %24

24:                                               ; preds = %23
  %25 = load ptr, ptr %3, align 8
  %26 = load i32, ptr %4, align 4
  %27 = insertvalue { ptr, i32 } poison, ptr %25, 0
  %28 = insertvalue { ptr, i32 } %27, i32 %26, 1
  resume { ptr, i32 } %28
}